; Function Attrs: mustprogress nofree norecurse nosync nounwind willreturn memory(argmem: write) uwtable
define internal noundef zeroext i1 @_ZNSt17_Function_handlerIFbRKNSt7__cxx1112basic_stringIcSt11char_traitsIcESaIcEEES7_EZZNK8ListNode8EvaluateERKSt6vectorIS5_SaIS5_EEP28cmGeneratorExpressionContextPK26GeneratorExpressionContentP31cmGeneratorExpressionDAGCheckerENKUlSG_SJ_RN12_GLOBAL__N_15RangeISC_EEE13_clESG_SJ_SP_EUlS7_S7_E_E10_M_managerERSt9_Any_dataRKST_St18_Manager_operation(ptr nocapture noundef nonnull writeonly align 8 dereferenceable(16) %0, ptr noundef nonnull align 8 dereferenceable(16) %1, i32 noundef %2) #14 align 2 personality ptr @__gxx_personality_v0 {
  switch i32 %2, label %_ZNSt14_Function_base13_Base_managerIZZNK8ListNode8EvaluateERKSt6vectorINSt7__cxx1112basic_stringIcSt11char_traitsIcESaIcEEESaIS8_EEP28cmGeneratorExpressionContextPK26GeneratorExpressionContentP31cmGeneratorExpressionDAGCheckerENKUlSE_SH_RN12_GLOBAL__N_15RangeISA_EEE13_clB5cxx11ESE_SH_SN_EUlRKS8_SQ_E_E10_M_managerERSt9_Any_dataRKST_St18_Manager_operation.exit [
    i32 0, label %_ZNSt14_Function_base13_Base_managerIZZNK8ListNode8EvaluateERKSt6vectorINSt7__cxx1112basic_stringIcSt11char_traitsIcESaIcEEESaIS8_EEP28cmGeneratorExpressionContextPK26GeneratorExpressionContentP31cmGeneratorExpressionDAGCheckerENKUlSE_SH_RN12_GLOBAL__N_15RangeISA_EEE13_clB5cxx11ESE_SH_SN_EUlRKS8_SQ_E_E10_M_managerERSt9_Any_dataRKST_St18_Manager_operation.exit.sink.split
    i32 1, label %4
  ]

4:                                                ; preds = %3
  br label %_ZNSt14_Function_base13_Base_managerIZZNK8ListNode8EvaluateERKSt6vectorINSt7__cxx1112basic_stringIcSt11char_traitsIcESaIcEEESaIS8_EEP28cmGeneratorExpressionContextPK26GeneratorExpressionContentP31cmGeneratorExpressionDAGCheckerENKUlSE_SH_RN12_GLOBAL__N_15RangeISA_EEE13_clB5cxx11ESE_SH_SN_EUlRKS8_SQ_E_E10_M_managerERSt9_Any_dataRKST_St18_Manager_operation.exit.sink.split

_ZNSt14_Function_base13_Base_managerIZZNK8ListNode8EvaluateERKSt6vectorINSt7__cxx1112basic_stringIcSt11char_traitsIcESaIcEEESaIS8_EEP28cmGeneratorExpressionContextPK26GeneratorExpressionContentP31cmGeneratorExpressionDAGCheckerENKUlSE_SH_RN12_GLOBAL__N_15RangeISA_EEE13_clB5cxx11ESE_SH_SN_EUlRKS8_SQ_E_E10_M_managerERSt9_Any_dataRKST_St18_Manager_operation.exit.sink.split: ; preds = %3, %4
  %.sink = phi ptr [ %1, %4 ], [ @_ZTIZZNK8ListNode8EvaluateERKSt6vectorINSt7__cxx1112basic_stringIcSt11char_traitsIcESaIcEEESaIS6_EEP28cmGeneratorExpressionContextPK26GeneratorExpressionContentP31cmGeneratorExpressionDAGCheckerENKUlSC_SF_RN12_GLOBAL__N_15RangeIS8_EEE13_clB5cxx11ESC_SF_SL_EUlRKS6_SO_E_, %3 ]
  store ptr %.sink, ptr %0, align 8
  br label %_ZNSt14_Function_base13_Base_managerIZZNK8ListNode8EvaluateERKSt6vectorINSt7__cxx1112basic_stringIcSt11char_traitsIcESaIcEEESaIS8_EEP28cmGeneratorExpressionContextPK26GeneratorExpressionContentP31cmGeneratorExpressionDAGCheckerENKUlSE_SH_RN12_GLOBAL__N_15RangeISA_EEE13_clB5cxx11ESE_SH_SN_EUlRKS8_SQ_E_E10_M_managerERSt9_Any_dataRKST_St18_Manager_operation.exit

_ZNSt14_Function_base13_Base_managerIZZNK8ListNode8EvaluateERKSt6vectorINSt7__cxx1112basic_stringIcSt11char_traitsIcESaIcEEESaIS8_EEP28cmGeneratorExpressionContextPK26GeneratorExpressionContentP31cmGeneratorExpressionDAGCheckerENKUlSE_SH_RN12_GLOBAL__N_15RangeISA_EEE13_clB5cxx11ESE_SH_SN_EUlRKS8_SQ_E_E10_M_managerERSt9_Any_dataRKST_St18_Manager_operation.exit: ; preds = %_ZNSt14_Function_base13_Base_managerIZZNK8ListNode8EvaluateERKSt6vectorINSt7__cxx1112basic_stringIcSt11char_traitsIcESaIcEEESaIS8_EEP28cmGeneratorExpressionContextPK26GeneratorExpressionContentP31cmGeneratorExpressionDAGCheckerENKUlSE_SH_RN12_GLOBAL__N_15RangeISA_EEE13_clB5cxx11ESE_SH_SN_EUlRKS8_SQ_E_E10_M_managerERSt9_Any_dataRKST_St18_Manager_operation.exit.sink.split, %3
  ret i1 false
}